; Function Attrs: null_pointer_is_valid sspstrong uwtable
define ptr @fragment_get_reassembled_id(ptr noundef readonly captures(none) %0, ptr noundef readonly captures(none) %1, i32 noundef %2) local_unnamed_addr #2 {
  %4 = alloca %struct._reassembled_key, align 4
  call void @llvm.lifetime.start.p0(i64 8, ptr nonnull %4) #18
  %5 = getelementptr inbounds nuw i8, ptr %1, i64 20
  %6 = load i32, ptr %5, align 4
  %7 = getelementptr inbounds nuw i8, ptr %4, i64 4
  store i32 %6, ptr %7, align 4
  store i32 %2, ptr %4, align 4
  %8 = getelementptr inbounds nuw i8, ptr %0, i64 8
  %9 = load ptr, ptr %8, align 8
  %10 = call ptr @g_hash_table_lookup(ptr noundef %9, ptr noundef nonnull %4)
  call void @llvm.lifetime.end.p0(i64 8, ptr nonnull %4) #18
  ret ptr %10
}